; ModuleID = '22/89.c'
source_filename = "22/89.c"
target datalayout = "e-m:e-p270:32:32-p271:32:32-p272:64:64-i64:64-f80:128-n8:16:32:64-S128"
target triple = "x86_64-pc-linux-gnu"

@.str = private unnamed_addr constant [3 x i8] c"%d\00", align 1
@.str.1 = private unnamed_addr constant [3 x i8] c"No\00", align 1

; Function Attrs: noinline nounwind uwtable
define dso_local void @main() #0 {
  %1 = alloca i32, align 4
  %2 = alloca i32, align 4
  %3 = alloca [300 x i32], align 16
  %4 = alloca i32, align 4
  %5 = alloca i32, align 4
  %6 = alloca i32, align 4
  %7 = alloca i8, align 1
  %8 = alloca [300 x i32], align 16
  %9 = alloca i32, align 4
  store i32 0, i32* %5, align 4
  store i32 0, i32* %1, align 4
  br label %10

10:                                               ; preds = %17, %0
  %11 = load i32, i32* %1, align 4
  %12 = icmp slt i32 %11, 300
  br i1 %12, label %13, label %20

13:                                               ; preds = %10
  %14 = load i32, i32* %1, align 4
  %15 = sext i32 %14 to i64
  %16 = getelementptr inbounds [300 x i32], [300 x i32]* %3, i64 0, i64 %15
  store i32 -1, i32* %16, align 4
  br label %17

17:                                               ; preds = %13
  %18 = load i32, i32* %1, align 4
  %19 = add nsw i32 %18, 1
  store i32 %19, i32* %1, align 4
  br label %10

20:                                               ; preds = %10
  store i32 0, i32* %1, align 4
  br label %21

21:                                               ; preds = %38, %20
  %22 = load i32, i32* %1, align 4
  %23 = icmp slt i32 %22, 300
  br i1 %23, label %24, label %41

24:                                               ; preds = %21
  %25 = load i32, i32* %1, align 4
  %26 = sext i32 %25 to i64
  %27 = getelementptr inbounds [300 x i32], [300 x i32]* %3, i64 0, i64 %26
  %28 = call i32 (i8*, ...) @__isoc99_scanf(i8* getelementptr inbounds ([3 x i8], [3 x i8]* @.str, i64 0, i64 0), i32* %27)
  %29 = call i32 @getchar()
  %30 = trunc i32 %29 to i8
  store i8 %30, i8* %7, align 1
  %31 = load i32, i32* %5, align 4
  %32 = add nsw i32 %31, 1
  store i32 %32, i32* %5, align 4
  %33 = load i8, i8* %7, align 1
  %34 = sext i8 %33 to i32
  %35 = icmp eq i32 %34, 10
  br i1 %35, label %36, label %37

36:                                               ; preds = %24
  br label %41

37:                                               ; preds = %24
  br label %38

38:                                               ; preds = %37
  %39 = load i32, i32* %1, align 4
  %40 = add nsw i32 %39, 1
  store i32 %40, i32* %1, align 4
  br label %21

41:                                               ; preds = %36, %21
  store i32 0, i32* %6, align 4
  %42 = load i32, i32* %5, align 4
  %43 = icmp eq i32 %42, 1
  br i1 %43, label %44, label %45

44:                                               ; preds = %41
  store i32 0, i32* %6, align 4
  br label %45

45:                                               ; preds = %44, %41
  store i32 0, i32* %1, align 4
  br label %46

46:                                               ; preds = %62, %45
  %47 = load i32, i32* %1, align 4
  %48 = load i32, i32* %5, align 4
  %49 = icmp slt i32 %47, %48
  br i1 %49, label %50, label %65

50:                                               ; preds = %46
  %51 = getelementptr inbounds [300 x i32], [300 x i32]* %3, i64 0, i64 0
  %52 = load i32, i32* %51, align 16
  %53 = load i32, i32* %1, align 4
  %54 = sext i32 %53 to i64
  %55 = getelementptr inbounds [300 x i32], [300 x i32]* %3, i64 0, i64 %54
  %56 = load i32, i32* %55, align 4
  %57 = icmp ne i32 %52, %56
  br i1 %57, label %58, label %61

58:                                               ; preds = %50
  %59 = load i32, i32* %6, align 4
  %60 = add nsw i32 %59, 1
  store i32 %60, i32* %6, align 4
  br label %61

61:                                               ; preds = %58, %50
  br label %62

62:                                               ; preds = %61
  %63 = load i32, i32* %1, align 4
  %64 = add nsw i32 %63, 1
  store i32 %64, i32* %1, align 4
  br label %46

65:                                               ; preds = %46
  store i32 0, i32* %1, align 4
  br label %66

66:                                               ; preds = %111, %65
  %67 = load i32, i32* %1, align 4
  %68 = load i32, i32* %5, align 4
  %69 = icmp slt i32 %67, %68
  br i1 %69, label %70, label %114

70:                                               ; preds = %66
  store i32 0, i32* %4, align 4
  br label %71

71:                                               ; preds = %107, %70
  %72 = load i32, i32* %4, align 4
  %73 = load i32, i32* %5, align 4
  %74 = load i32, i32* %1, align 4
  %75 = sub nsw i32 %73, %74
  %76 = icmp slt i32 %72, %75
  br i1 %76, label %77, label %110

77:                                               ; preds = %71
  %78 = load i32, i32* %4, align 4
  %79 = sext i32 %78 to i64
  %80 = getelementptr inbounds [300 x i32], [300 x i32]* %3, i64 0, i64 %79
  %81 = load i32, i32* %80, align 4
  %82 = load i32, i32* %4, align 4
  %83 = add nsw i32 %82, 1
  %84 = sext i32 %83 to i64
  %85 = getelementptr inbounds [300 x i32], [300 x i32]* %3, i64 0, i64 %84
  %86 = load i32, i32* %85, align 4
  %87 = icmp slt i32 %81, %86
  br i1 %87, label %88, label %106

88:                                               ; preds = %77
  %89 = load i32, i32* %4, align 4
  %90 = sext i32 %89 to i64
  %91 = getelementptr inbounds [300 x i32], [300 x i32]* %3, i64 0, i64 %90
  %92 = load i32, i32* %91, align 4
  store i32 %92, i32* %2, align 4
  %93 = load i32, i32* %4, align 4
  %94 = add nsw i32 %93, 1
  %95 = sext i32 %94 to i64
  %96 = getelementptr inbounds [300 x i32], [300 x i32]* %3, i64 0, i64 %95
  %97 = load i32, i32* %96, align 4
  %98 = load i32, i32* %4, align 4
  %99 = sext i32 %98 to i64
  %100 = getelementptr inbounds [300 x i32], [300 x i32]* %3, i64 0, i64 %99
  store i32 %97, i32* %100, align 4
  %101 = load i32, i32* %2, align 4
  %102 = load i32, i32* %4, align 4
  %103 = add nsw i32 %102, 1
  %104 = sext i32 %103 to i64
  %105 = getelementptr inbounds [300 x i32], [300 x i32]* %3, i64 0, i64 %104
  store i32 %101, i32* %105, align 4
  br label %106

106:                                              ; preds = %88, %77
  br label %107

107:                                              ; preds = %106
  %108 = load i32, i32* %4, align 4
  %109 = add nsw i32 %108, 1
  store i32 %109, i32* %4, align 4
  br label %71

110:                                              ; preds = %71
  br label %111

111:                                              ; preds = %110
  %112 = load i32, i32* %1, align 4
  %113 = add nsw i32 %112, 1
  store i32 %113, i32* %1, align 4
  br label %66

114:                                              ; preds = %66
  store i32 0, i32* %9, align 4
  store i32 0, i32* %1, align 4
  br label %115

115:                                              ; preds = %141, %114
  %116 = load i32, i32* %1, align 4
  %117 = load i32, i32* %5, align 4
  %118 = icmp slt i32 %116, %117
  br i1 %118, label %119, label %144

119:                                              ; preds = %115
  %120 = load i32, i32* %1, align 4
  %121 = sext i32 %120 to i64
  %122 = getelementptr inbounds [300 x i32], [300 x i32]* %3, i64 0, i64 %121
  %123 = load i32, i32* %122, align 4
  %124 = load i32, i32* %1, align 4
  %125 = add nsw i32 %124, 1
  %126 = sext i32 %125 to i64
  %127 = getelementptr inbounds [300 x i32], [300 x i32]* %3, i64 0, i64 %126
  %128 = load i32, i32* %127, align 4
  %129 = icmp sgt i32 %123, %128
  br i1 %129, label %130, label %140

130:                                              ; preds = %119
  %131 = load i32, i32* %1, align 4
  %132 = sext i32 %131 to i64
  %133 = getelementptr inbounds [300 x i32], [300 x i32]* %3, i64 0, i64 %132
  %134 = load i32, i32* %133, align 4
  %135 = load i32, i32* %9, align 4
  %136 = sext i32 %135 to i64
  %137 = getelementptr inbounds [300 x i32], [300 x i32]* %8, i64 0, i64 %136
  store i32 %134, i32* %137, align 4
  %138 = load i32, i32* %9, align 4
  %139 = add nsw i32 %138, 1
  store i32 %139, i32* %9, align 4
  br label %140

140:                                              ; preds = %130, %119
  br label %141

141:                                              ; preds = %140
  %142 = load i32, i32* %1, align 4
  %143 = add nsw i32 %142, 1
  store i32 %143, i32* %1, align 4
  br label %115

144:                                              ; preds = %115
  %145 = load i32, i32* %6, align 4
  %146 = icmp eq i32 %145, 0
  br i1 %146, label %147, label %149

147:                                              ; preds = %144
  %148 = call i32 (i8*, ...) @printf(i8* getelementptr inbounds ([3 x i8], [3 x i8]* @.str.1, i64 0, i64 0))
  br label %153

149:                                              ; preds = %144
  %150 = getelementptr inbounds [300 x i32], [300 x i32]* %8, i64 0, i64 1
  %151 = load i32, i32* %150, align 4
  %152 = call i32 (i8*, ...) @printf(i8* getelementptr inbounds ([3 x i8], [3 x i8]* @.str, i64 0, i64 0), i32 %151)
  br label %153

153:                                              ; preds = %149, %147
  ret void
}

declare dso_local i32 @__isoc99_scanf(i8*, ...) #1

declare dso_local i32 @getchar() #1

declare dso_local i32 @printf(i8*, ...) #1


!llvm.module.flags = !{!0}
!llvm.ident = !{!1}

!0 = !{i32 1, !"wchar_size", i32 4}
!1 = !{!"clang version 10.0.0-4ubuntu1 "}
